; Function Attrs: nounwind uwtable
define dso_local ptr @add_to_flat_tlist(ptr noundef %0, ptr noundef readonly captures(address_is_null) %1) local_unnamed_addr #0 {
  %.not.i = icmp eq ptr %0, null
  br i1 %.not.i, label %list_length.exit, label %3

3:                                                ; preds = %2
  %4 = getelementptr inbounds nuw i8, ptr %0, i64 4
  %5 = load i32, ptr %4, align 4
  %6 = add i32 %5, 1
  br label %list_length.exit

list_length.exit:                                 ; preds = %2, %3
  %7 = phi i32 [ %6, %3 ], [ 1, %2 ]
  %8 = getelementptr inbounds nuw i8, ptr %1, i64 4
  %.not = icmp eq ptr %1, null
  br i1 %.not, label %._crit_edge, label %.lr.ph

.lr.ph:                                           ; preds = %list_length.exit
  %9 = getelementptr inbounds nuw i8, ptr %1, i64 16
  %10 = load i32, ptr %8, align 4
  %11 = icmp sgt i32 %10, 0
  br i1 %11, label %.lr.ph32, label %._crit_edge

._crit_edge:                                      ; preds = %tlist_member.exit, %.lr.ph, %list_length.exit
  %.0.lcssa = phi ptr [ %0, %list_length.exit ], [ %0, %.lr.ph ], [ %.1, %tlist_member.exit ]
  ret ptr %.0.lcssa

.lr.ph32:                                         ; preds = %.lr.ph, %tlist_member.exit
  %indvars.iv = phi i64 [ %indvars.iv.next, %tlist_member.exit ], [ 0, %.lr.ph ]
  %.0132430 = phi i32 [ %.114, %tlist_member.exit ], [ %7, %.lr.ph ]
  %.02529 = phi ptr [ %.1, %tlist_member.exit ], [ %0, %.lr.ph ]
  %12 = load ptr, ptr %9, align 8
  %13 = getelementptr inbounds nuw %union.ListCell, ptr %12, i64 %indvars.iv
  %14 = load ptr, ptr %13, align 8
  %15 = getelementptr inbounds nuw i8, ptr %.02529, i64 4
  %.not.i19 = icmp eq ptr %.02529, null
  br i1 %.not.i19, label %.loopexit, label %.lr.ph.i

.lr.ph.i:                                         ; preds = %.lr.ph32
  %16 = getelementptr inbounds nuw i8, ptr %.02529, i64 16
  %17 = load i32, ptr %15, align 4
  %18 = icmp sgt i32 %17, 0
  br i1 %18, label %.lr.ph31.i, label %.loopexit

19:                                               ; preds = %.lr.ph31.i
  %indvars.iv.next.i = add nuw nsw i64 %indvars.iv.i, 1
  %20 = load i32, ptr %15, align 4
  %21 = sext i32 %20 to i64
  %22 = icmp slt i64 %indvars.iv.next.i, %21
  br i1 %22, label %.lr.ph31.i, label %.loopexit

.lr.ph31.i:                                       ; preds = %.lr.ph.i, %19
  %indvars.iv.i = phi i64 [ %indvars.iv.next.i, %19 ], [ 0, %.lr.ph.i ]
  %23 = load ptr, ptr %16, align 8
  %24 = getelementptr inbounds nuw %union.ListCell, ptr %23, i64 %indvars.iv.i
  %25 = load ptr, ptr %24, align 8
  %26 = getelementptr inbounds nuw i8, ptr %25, i64 8
  %27 = load ptr, ptr %26, align 8
  %28 = tail call zeroext i1 @equal(ptr noundef %14, ptr noundef %27) #10
  br i1 %28, label %tlist_member.exit, label %19

.loopexit:                                        ; preds = %19, %.lr.ph32, %.lr.ph.i
  %29 = tail call ptr @copyObjectImpl(ptr noundef %14) #10
  %30 = add i32 %.0132430, 1
  %31 = trunc i32 %.0132430 to i16
  %32 = tail call ptr @makeTargetEntry(ptr noundef %29, i16 noundef signext %31, ptr noundef null, i1 noundef zeroext false) #10
  %33 = tail call ptr @lappend(ptr noundef %.02529, ptr noundef %32) #10
  br label %tlist_member.exit

tlist_member.exit:                                ; preds = %.lr.ph31.i, %.loopexit
  %.114 = phi i32 [ %30, %.loopexit ], [ %.0132430, %.lr.ph31.i ]
  %.1 = phi ptr [ %33, %.loopexit ], [ %.02529, %.lr.ph31.i ]
  %indvars.iv.next = add nuw nsw i64 %indvars.iv, 1
  %34 = load i32, ptr %8, align 4
  %35 = sext i32 %34 to i64
  %36 = icmp slt i64 %indvars.iv.next, %35
  br i1 %36, label %.lr.ph32, label %._crit_edge
}